target datalayout = "e-m:e-p270:32:32-p271:32:32-p272:64:64-i64:64-i128:128-f80:128-n8:16:32:64-S128"
target triple = "x86_64-pc-linux-gnu"

%"class.cv::optflow::RLOFOpticalFlowParameter" = type { i32, i32, float, float, i32, i32, i32, i32, i8, i8, i8, i32, float, float }

; Function Attrs: mustprogress nounwind uwtable
define linkonce_odr hidden noundef float @_ZNSt14numeric_limitsIfE3maxEv() #6 comdat align 2 {
  ret float 0x47EFFFFFE0000000
}

; Function Attrs: mustprogress nounwind uwtable
define void @_ZN2cv7optflow24RLOFOpticalFlowParameter16setUseMEstimatorEb(ptr noundef nonnull align 4 dereferenceable(48) %0, i1 noundef zeroext %1) #6 align 2 {
  %3 = alloca ptr, align 8
  %4 = alloca i8, align 1
  store ptr %0, ptr %3, align 8, !tbaa !3
  %5 = zext i1 %1 to i8
  store i8 %5, ptr %4, align 1, !tbaa !30
  %6 = load ptr, ptr %3, align 8
  %7 = load i8, ptr %4, align 1, !tbaa !30, !range !31, !noundef !32
  %8 = trunc i8 %7 to i1
  br i1 %8, label %9, label %12

9:                                                ; preds = %2
  %10 = getelementptr inbounds nuw %"class.cv::optflow::RLOFOpticalFlowParameter", ptr %6, i32 0, i32 2
  store float 0x40099999A0000000, ptr %10, align 4, !tbaa !16
  %11 = getelementptr inbounds nuw %"class.cv::optflow::RLOFOpticalFlowParameter", ptr %6, i32 0, i32 3
  store float 7.000000e+00, ptr %11, align 4, !tbaa !17
  br label %17

12:                                               ; preds = %2
  %13 = call noundef float @_ZNSt14numeric_limitsIfE3maxEv() #3
  %14 = getelementptr inbounds nuw %"class.cv::optflow::RLOFOpticalFlowParameter", ptr %6, i32 0, i32 2
  store float %13, ptr %14, align 4, !tbaa !16
  %15 = call noundef float @_ZNSt14numeric_limitsIfE3maxEv() #3
  %16 = getelementptr inbounds nuw %"class.cv::optflow::RLOFOpticalFlowParameter", ptr %6, i32 0, i32 3
  store float %15, ptr %16, align 4, !tbaa !17
  br label %17

17:                                               ; preds = %12, %9
  ret void
}