; Function Attrs: mustprogress nofree norecurse nosync nounwind willreturn memory(argmem: write) uwtable
define void @_ZN2cv7optflow24RLOFOpticalFlowParameter16setUseMEstimatorEb(ptr noundef nonnull writeonly align 4 captures(none) dereferenceable(48) initializes((8, 16)) %0, i1 noundef zeroext %1) local_unnamed_addr #6 align 2 {
  %.sink1 = select i1 %1, float 0x40099999A0000000, float 0x47EFFFFFE0000000
  %.sink = select i1 %1, float 7.000000e+00, float 0x47EFFFFFE0000000
  %3 = getelementptr inbounds nuw i8, ptr %0, i64 8
  store float %.sink1, ptr %3, align 4, !tbaa !13
  %4 = getelementptr inbounds nuw i8, ptr %0, i64 12
  store float %.sink, ptr %4, align 4, !tbaa !14
  ret void
}